target datalayout = "e-m:e-p270:32:32-p271:32:32-p272:64:64-i64:64-i128:128-f80:128-n8:16:32:64-S128"
target triple = "x86_64-pc-linux-gnu"

%struct.magic_set = type { [2 x ptr], %struct.cont, %struct.out, i32, i32, i32, i32, i32, ptr, i64, i32, %struct.anon, %union.VALUETYPE, i16, i16, i16, i16, i16, i16, i64, i64, i64 }
%struct.cont = type { i64, ptr }
%struct.out = type { ptr, i64, ptr }
%struct.anon = type { ptr, i64, i64, i64 }
%union.VALUETYPE = type { [2 x i64], [112 x i8] }
%struct.buffer = type { i32, %struct.stat, ptr, i64, i64, ptr, i64 }
%struct.stat = type { i64, i64, i64, i32, i32, i32, i32, i64, i64, i64, i64, %struct.timespec, %struct.timespec, %struct.timespec, [3 x i64] }
%struct.timespec = type { i64, i64 }
%struct.magic = type { i16, i8, i8, i8, i8, i8, i8, i8, i8, i8, i8, i32, i32, i32, %union.anon, %union.VALUETYPE, [64 x i8], [80 x i8], [8 x i8], [64 x i8] }
%union.anon = type { i64 }
%struct.anon.0 = type { i32, i32 }

@stderr = external global ptr, align 8
@.str.44 = private unnamed_addr constant [3 x i8] c"\0D\0A\00", align 1
@.str.48 = private unnamed_addr constant [29 x i8] c"Bad DER offset %d nbytes=%zu\00", align 1

; Function Attrs: nounwind uwtable
define internal i32 @moffset(ptr noundef %0, ptr noundef %1, ptr noundef %2, ptr noundef %3) #0 {
  %5 = alloca i32, align 4
  %6 = alloca ptr, align 8
  %7 = alloca ptr, align 8
  %8 = alloca ptr, align 8
  %9 = alloca ptr, align 8
  %10 = alloca i64, align 8
  %11 = alloca i32, align 4
  %12 = alloca ptr, align 8
  %13 = alloca i64, align 8
  store ptr %0, ptr %6, align 8
  store ptr %1, ptr %7, align 8
  store ptr %2, ptr %8, align 8
  store ptr %3, ptr %9, align 8
  %14 = load ptr, ptr %8, align 8
  %15 = getelementptr inbounds %struct.buffer, ptr %14, i32 0, i32 3
  %16 = load i64, ptr %15, align 8
  store i64 %16, ptr %10, align 8
  %17 = load ptr, ptr %7, align 8
  %18 = getelementptr inbounds %struct.magic, ptr %17, i32 0, i32 5
  %19 = load i8, ptr %18, align 2
  %20 = zext i8 %19 to i32
  switch i32 %20, label %243 [
    i32 1, label %21
    i32 2, label %28
    i32 7, label %28
    i32 10, label %28
    i32 53, label %28
    i32 54, label %28
    i32 55, label %28
    i32 56, label %28
    i32 57, label %28
    i32 58, label %28
    i32 4, label %35
    i32 8, label %35
    i32 11, label %35
    i32 23, label %35
    i32 24, label %42
    i32 26, label %42
    i32 25, label %42
    i32 5, label %49
    i32 13, label %49
    i32 18, label %49
    i32 19, label %49
    i32 59, label %49
    i32 6, label %114
    i32 9, label %114
    i32 12, label %114
    i32 21, label %114
    i32 14, label %121
    i32 15, label %121
    i32 16, label %121
    i32 22, label %121
    i32 27, label %128
    i32 29, label %128
    i32 28, label %128
    i32 30, label %135
    i32 32, label %135
    i32 31, label %135
    i32 33, label %142
    i32 34, label %142
    i32 35, label %142
    i32 36, label %149
    i32 37, label %149
    i32 38, label %149
    i32 17, label %156
    i32 20, label %181
    i32 47, label %206
    i32 3, label %206
    i32 41, label %206
    i32 50, label %206
    i32 46, label %206
    i32 48, label %210
    i32 49, label %236
  ]

21:                                               ; preds = %4
  %22 = load ptr, ptr %6, align 8
  %23 = getelementptr inbounds %struct.magic_set, ptr %22, i32 0, i32 3
  %24 = load i32, ptr %23, align 8
  %25 = zext i32 %24 to i64
  %26 = add i64 %25, 1
  %27 = trunc i64 %26 to i32
  store i32 %27, ptr %11, align 4
  br label %244

28:                                               ; preds = %4, %4, %4, %4, %4, %4, %4, %4, %4
  %29 = load ptr, ptr %6, align 8
  %30 = getelementptr inbounds %struct.magic_set, ptr %29, i32 0, i32 3
  %31 = load i32, ptr %30, align 8
  %32 = zext i32 %31 to i64
  %33 = add i64 %32, 2
  %34 = trunc i64 %33 to i32
  store i32 %34, ptr %11, align 4
  br label %244

35:                                               ; preds = %4, %4, %4, %4
  %36 = load ptr, ptr %6, align 8
  %37 = getelementptr inbounds %struct.magic_set, ptr %36, i32 0, i32 3
  %38 = load i32, ptr %37, align 8
  %39 = zext i32 %38 to i64
  %40 = add i64 %39, 4
  %41 = trunc i64 %40 to i32
  store i32 %41, ptr %11, align 4
  br label %244

42:                                               ; preds = %4, %4, %4
  %43 = load ptr, ptr %6, align 8
  %44 = getelementptr inbounds %struct.magic_set, ptr %43, i32 0, i32 3
  %45 = load i32, ptr %44, align 8
  %46 = zext i32 %45 to i64
  %47 = add i64 %46, 8
  %48 = trunc i64 %47 to i32
  store i32 %48, ptr %11, align 4
  br label %244

49:                                               ; preds = %4, %4, %4, %4, %4
  %50 = load ptr, ptr %7, align 8
  %51 = getelementptr inbounds %struct.magic, ptr %50, i32 0, i32 3
  %52 = load i8, ptr %51, align 4
  %53 = zext i8 %52 to i32
  %54 = icmp eq i32 %53, 61
  br i1 %54, label %61, label %55

55:                                               ; preds = %49
  %56 = load ptr, ptr %7, align 8
  %57 = getelementptr inbounds %struct.magic, ptr %56, i32 0, i32 3
  %58 = load i8, ptr %57, align 4
  %59 = zext i8 %58 to i32
  %60 = icmp eq i32 %59, 33
  br i1 %60, label %61, label %70

61:                                               ; preds = %55, %49
  %62 = load ptr, ptr %6, align 8
  %63 = getelementptr inbounds %struct.magic_set, ptr %62, i32 0, i32 3
  %64 = load i32, ptr %63, align 8
  %65 = load ptr, ptr %7, align 8
  %66 = getelementptr inbounds %struct.magic, ptr %65, i32 0, i32 4
  %67 = load i8, ptr %66, align 1
  %68 = zext i8 %67 to i32
  %69 = add i32 %64, %68
  store i32 %69, ptr %11, align 4
  br label %113

70:                                               ; preds = %55
  %71 = load ptr, ptr %6, align 8
  %72 = getelementptr inbounds %struct.magic_set, ptr %71, i32 0, i32 12
  store ptr %72, ptr %12, align 8
  %73 = load ptr, ptr %7, align 8
  %74 = getelementptr inbounds %struct.magic, ptr %73, i32 0, i32 15
  %75 = getelementptr inbounds [128 x i8], ptr %74, i64 0, i64 0
  %76 = load i8, ptr %75, align 8
  %77 = sext i8 %76 to i32
  %78 = icmp eq i32 %77, 0
  br i1 %78, label %79, label %85

79:                                               ; preds = %70
  %80 = load ptr, ptr %12, align 8
  %81 = load ptr, ptr %12, align 8
  %82 = getelementptr inbounds [128 x i8], ptr %81, i64 0, i64 0
  %83 = call i64 @strcspn(ptr noundef %82, ptr noundef @.str.44) #12
  %84 = getelementptr inbounds [128 x i8], ptr %80, i64 0, i64 %83
  store i8 0, ptr %84, align 1
  br label %85

85:                                               ; preds = %79, %70
  %86 = load ptr, ptr %6, align 8
  %87 = getelementptr inbounds %struct.magic_set, ptr %86, i32 0, i32 3
  %88 = load i32, ptr %87, align 8
  %89 = zext i32 %88 to i64
  %90 = load ptr, ptr %12, align 8
  %91 = getelementptr inbounds [128 x i8], ptr %90, i64 0, i64 0
  %92 = call i64 @strlen(ptr noundef %91) #12
  %93 = add i64 %89, %92
  %94 = trunc i64 %93 to i32
  store i32 %94, ptr %11, align 4
  %95 = load ptr, ptr %7, align 8
  %96 = getelementptr inbounds %struct.magic, ptr %95, i32 0, i32 5
  %97 = load i8, ptr %96, align 2
  %98 = zext i8 %97 to i32
  %99 = icmp eq i32 %98, 13
  br i1 %99, label %100, label %112

100:                                              ; preds = %85
  %101 = load ptr, ptr %6, align 8
  %102 = load ptr, ptr %7, align 8
  %103 = call i64 @file_pstring_length_size(ptr noundef %101, ptr noundef %102)
  store i64 %103, ptr %13, align 8
  %104 = load i64, ptr %13, align 8
  %105 = icmp eq i64 %104, -1
  br i1 %105, label %106, label %107

106:                                              ; preds = %100
  store i32 -1, ptr %5, align 4
  br label %253

107:                                              ; preds = %100
  %108 = load i64, ptr %13, align 8
  %109 = trunc i64 %108 to i32
  %110 = load i32, ptr %11, align 4
  %111 = add i32 %110, %109
  store i32 %111, ptr %11, align 4
  br label %112

112:                                              ; preds = %107, %85
  br label %113

113:                                              ; preds = %112, %61
  br label %244

114:                                              ; preds = %4, %4, %4, %4
  %115 = load ptr, ptr %6, align 8
  %116 = getelementptr inbounds %struct.magic_set, ptr %115, i32 0, i32 3
  %117 = load i32, ptr %116, align 8
  %118 = zext i32 %117 to i64
  %119 = add i64 %118, 4
  %120 = trunc i64 %119 to i32
  store i32 %120, ptr %11, align 4
  br label %244

121:                                              ; preds = %4, %4, %4, %4
  %122 = load ptr, ptr %6, align 8
  %123 = getelementptr inbounds %struct.magic_set, ptr %122, i32 0, i32 3
  %124 = load i32, ptr %123, align 8
  %125 = zext i32 %124 to i64
  %126 = add i64 %125, 4
  %127 = trunc i64 %126 to i32
  store i32 %127, ptr %11, align 4
  br label %244

128:                                              ; preds = %4, %4, %4
  %129 = load ptr, ptr %6, align 8
  %130 = getelementptr inbounds %struct.magic_set, ptr %129, i32 0, i32 3
  %131 = load i32, ptr %130, align 8
  %132 = zext i32 %131 to i64
  %133 = add i64 %132, 8
  %134 = trunc i64 %133 to i32
  store i32 %134, ptr %11, align 4
  br label %244

135:                                              ; preds = %4, %4, %4
  %136 = load ptr, ptr %6, align 8
  %137 = getelementptr inbounds %struct.magic_set, ptr %136, i32 0, i32 3
  %138 = load i32, ptr %137, align 8
  %139 = zext i32 %138 to i64
  %140 = add i64 %139, 8
  %141 = trunc i64 %140 to i32
  store i32 %141, ptr %11, align 4
  br label %244

142:                                              ; preds = %4, %4, %4
  %143 = load ptr, ptr %6, align 8
  %144 = getelementptr inbounds %struct.magic_set, ptr %143, i32 0, i32 3
  %145 = load i32, ptr %144, align 8
  %146 = zext i32 %145 to i64
  %147 = add i64 %146, 4
  %148 = trunc i64 %147 to i32
  store i32 %148, ptr %11, align 4
  br label %244

149:                                              ; preds = %4, %4, %4
  %150 = load ptr, ptr %6, align 8
  %151 = getelementptr inbounds %struct.magic_set, ptr %150, i32 0, i32 3
  %152 = load i32, ptr %151, align 8
  %153 = zext i32 %152 to i64
  %154 = add i64 %153, 8
  %155 = trunc i64 %154 to i32
  store i32 %155, ptr %11, align 4
  br label %244

156:                                              ; preds = %4
  %157 = load ptr, ptr %7, align 8
  %158 = getelementptr inbounds %struct.magic, ptr %157, i32 0, i32 14
  %159 = getelementptr inbounds %struct.anon.0, ptr %158, i32 0, i32 1
  %160 = load i32, ptr %159, align 4
  %161 = and i32 %160, 16
  %162 = icmp ne i32 %161, 0
  br i1 %162, label %163, label %169

163:                                              ; preds = %156
  %164 = load ptr, ptr %6, align 8
  %165 = getelementptr inbounds %struct.magic_set, ptr %164, i32 0, i32 11
  %166 = getelementptr inbounds %struct.anon, ptr %165, i32 0, i32 2
  %167 = load i64, ptr %166, align 8
  %168 = trunc i64 %167 to i32
  store i32 %168, ptr %11, align 4
  br label %180

169:                                              ; preds = %156
  %170 = load ptr, ptr %6, align 8
  %171 = getelementptr inbounds %struct.magic_set, ptr %170, i32 0, i32 11
  %172 = getelementptr inbounds %struct.anon, ptr %171, i32 0, i32 2
  %173 = load i64, ptr %172, align 8
  %174 = load ptr, ptr %6, align 8
  %175 = getelementptr inbounds %struct.magic_set, ptr %174, i32 0, i32 11
  %176 = getelementptr inbounds %struct.anon, ptr %175, i32 0, i32 3
  %177 = load i64, ptr %176, align 8
  %178 = add i64 %173, %177
  %179 = trunc i64 %178 to i32
  store i32 %179, ptr %11, align 4
  br label %180

180:                                              ; preds = %169, %163
  br label %244

181:                                              ; preds = %4
  %182 = load ptr, ptr %7, align 8
  %183 = getelementptr inbounds %struct.magic, ptr %182, i32 0, i32 14
  %184 = getelementptr inbounds %struct.anon.0, ptr %183, i32 0, i32 1
  %185 = load i32, ptr %184, align 4
  %186 = and i32 %185, 16
  %187 = icmp ne i32 %186, 0
  br i1 %187, label %188, label %194

188:                                              ; preds = %181
  %189 = load ptr, ptr %6, align 8
  %190 = getelementptr inbounds %struct.magic_set, ptr %189, i32 0, i32 11
  %191 = getelementptr inbounds %struct.anon, ptr %190, i32 0, i32 2
  %192 = load i64, ptr %191, align 8
  %193 = trunc i64 %192 to i32
  store i32 %193, ptr %11, align 4
  br label %205

194:                                              ; preds = %181
  %195 = load ptr, ptr %6, align 8
  %196 = getelementptr inbounds %struct.magic_set, ptr %195, i32 0, i32 11
  %197 = getelementptr inbounds %struct.anon, ptr %196, i32 0, i32 2
  %198 = load i64, ptr %197, align 8
  %199 = load ptr, ptr %7, align 8
  %200 = getelementptr inbounds %struct.magic, ptr %199, i32 0, i32 4
  %201 = load i8, ptr %200, align 1
  %202 = zext i8 %201 to i64
  %203 = add i64 %198, %202
  %204 = trunc i64 %203 to i32
  store i32 %204, ptr %11, align 4
  br label %205

205:                                              ; preds = %194, %188
  br label %244

206:                                              ; preds = %4, %4, %4, %4, %4
  %207 = load ptr, ptr %6, align 8
  %208 = getelementptr inbounds %struct.magic_set, ptr %207, i32 0, i32 3
  %209 = load i32, ptr %208, align 8
  store i32 %209, ptr %11, align 4
  br label %244

210:                                              ; preds = %4
  %211 = load ptr, ptr %6, align 8
  %212 = load ptr, ptr %7, align 8
  %213 = load i64, ptr %10, align 8
  %214 = call i32 @der_offs(ptr noundef %211, ptr noundef %212, i64 noundef %213)
  store i32 %214, ptr %11, align 4
  %215 = load i32, ptr %11, align 4
  %216 = icmp eq i32 %215, -1
  br i1 %216, label %222, label %217

217:                                              ; preds = %210
  %218 = load i32, ptr %11, align 4
  %219 = sext i32 %218 to i64
  %220 = load i64, ptr %10, align 8
  %221 = icmp ugt i64 %219, %220
  br i1 %221, label %222, label %235

222:                                              ; preds = %217, %210
  %223 = load ptr, ptr %6, align 8
  %224 = getelementptr inbounds %struct.magic_set, ptr %223, i32 0, i32 6
  %225 = load i32, ptr %224, align 4
  %226 = and i32 %225, 1
  %227 = icmp ne i32 %226, 0
  br i1 %227, label %228, label %233

228:                                              ; preds = %222
  %229 = load ptr, ptr @stderr, align 8
  %230 = load i32, ptr %11, align 4
  %231 = load i64, ptr %10, align 8
  %232 = call i32 (ptr, ptr, ...) @fprintf(ptr noundef %229, ptr noundef @.str.48, i32 noundef %230, i64 noundef %231) #10
  br label %233

233:                                              ; preds = %228, %222
  %234 = load ptr, ptr %9, align 8
  store i32 0, ptr %234, align 4
  store i32 0, ptr %5, align 4
  br label %253

235:                                              ; preds = %217
  br label %244

236:                                              ; preds = %4
  %237 = load ptr, ptr %6, align 8
  %238 = getelementptr inbounds %struct.magic_set, ptr %237, i32 0, i32 3
  %239 = load i32, ptr %238, align 8
  %240 = zext i32 %239 to i64
  %241 = add i64 %240, 16
  %242 = trunc i64 %241 to i32
  store i32 %242, ptr %11, align 4
  br label %244

243:                                              ; preds = %4
  store i32 0, ptr %11, align 4
  br label %244

244:                                              ; preds = %243, %236, %235, %206, %205, %180, %149, %142, %135, %128, %121, %114, %113, %42, %35, %28, %21
  %245 = load i32, ptr %11, align 4
  %246 = sext i32 %245 to i64
  %247 = load i64, ptr %10, align 8
  %248 = icmp ugt i64 %246, %247
  br i1 %248, label %249, label %250

249:                                              ; preds = %244
  store i32 -1, ptr %5, align 4
  br label %253

250:                                              ; preds = %244
  %251 = load i32, ptr %11, align 4
  %252 = load ptr, ptr %9, align 8
  store i32 %251, ptr %252, align 4
  store i32 1, ptr %5, align 4
  br label %253

253:                                              ; preds = %250, %249, %233, %106
  %254 = load i32, ptr %5, align 4
  ret i32 %254
}