; Function Attrs: nounwind uwtable
define internal fastcc noundef i32 @moffset(ptr noundef %0, ptr noundef %1, i64 %.160.val, ptr nocapture noundef writeonly %2) unnamed_addr #0 {
  %4 = getelementptr inbounds i8, ptr %1, i64 6
  %5 = load i8, ptr %4, align 2
  switch i8 %5, label %124 [
    i8 1, label %6
    i8 2, label %10
    i8 7, label %10
    i8 10, label %10
    i8 53, label %10
    i8 54, label %10
    i8 55, label %10
    i8 56, label %10
    i8 57, label %10
    i8 58, label %10
    i8 4, label %14
    i8 8, label %14
    i8 11, label %14
    i8 23, label %14
    i8 24, label %18
    i8 26, label %18
    i8 25, label %18
    i8 5, label %22
    i8 13, label %22
    i8 18, label %22
    i8 19, label %22
    i8 59, label %22
    i8 6, label %54
    i8 9, label %54
    i8 12, label %54
    i8 21, label %54
    i8 14, label %58
    i8 15, label %58
    i8 16, label %58
    i8 22, label %58
    i8 27, label %62
    i8 29, label %62
    i8 28, label %62
    i8 30, label %66
    i8 32, label %66
    i8 31, label %66
    i8 33, label %70
    i8 34, label %70
    i8 35, label %70
    i8 36, label %74
    i8 37, label %74
    i8 38, label %74
    i8 17, label %78
    i8 20, label %91
    i8 47, label %105
    i8 3, label %105
    i8 41, label %105
    i8 50, label %105
    i8 46, label %105
    i8 48, label %108
    i8 49, label %120
  ]

6:                                                ; preds = %3
  %7 = getelementptr inbounds i8, ptr %0, i64 56
  %8 = load i32, ptr %7, align 8
  %9 = add i32 %8, 1
  br label %124

10:                                               ; preds = %3, %3, %3, %3, %3, %3, %3, %3, %3
  %11 = getelementptr inbounds i8, ptr %0, i64 56
  %12 = load i32, ptr %11, align 8
  %13 = add i32 %12, 2
  br label %124

14:                                               ; preds = %3, %3, %3, %3
  %15 = getelementptr inbounds i8, ptr %0, i64 56
  %16 = load i32, ptr %15, align 8
  %17 = add i32 %16, 4
  br label %124

18:                                               ; preds = %3, %3, %3
  %19 = getelementptr inbounds i8, ptr %0, i64 56
  %20 = load i32, ptr %19, align 8
  %21 = add i32 %20, 8
  br label %124

22:                                               ; preds = %3, %3, %3, %3, %3
  %23 = getelementptr inbounds i8, ptr %1, i64 4
  %24 = load i8, ptr %23, align 4
  switch i8 %24, label %32 [
    i8 61, label %25
    i8 33, label %25
  ]

25:                                               ; preds = %22, %22
  %26 = getelementptr inbounds i8, ptr %0, i64 56
  %27 = load i32, ptr %26, align 8
  %28 = getelementptr inbounds i8, ptr %1, i64 5
  %29 = load i8, ptr %28, align 1
  %30 = zext i8 %29 to i32
  %31 = add i32 %27, %30
  br label %124

32:                                               ; preds = %22
  %33 = getelementptr inbounds i8, ptr %0, i64 136
  %34 = getelementptr inbounds i8, ptr %1, i64 32
  %35 = load i8, ptr %34, align 8
  %36 = icmp eq i8 %35, 0
  br i1 %36, label %37, label %40

37:                                               ; preds = %32
  %38 = tail call i64 @strcspn(ptr noundef nonnull %33, ptr noundef nonnull @.str.44) #25
  %39 = getelementptr inbounds [128 x i8], ptr %33, i64 0, i64 %38
  store i8 0, ptr %39, align 1
  %.pre = load i8, ptr %4, align 2
  br label %40

40:                                               ; preds = %37, %32
  %41 = phi i8 [ %.pre, %37 ], [ %5, %32 ]
  %42 = getelementptr inbounds i8, ptr %0, i64 56
  %43 = load i32, ptr %42, align 8
  %44 = tail call i64 @strlen(ptr noundef nonnull dereferenceable(1) %33) #25
  %45 = trunc i64 %44 to i32
  %46 = add i32 %43, %45
  %47 = icmp eq i8 %41, 13
  br i1 %47, label %48, label %124

48:                                               ; preds = %40
  %49 = tail call i64 @file_pstring_length_size(ptr noundef nonnull %0, ptr noundef nonnull %1) #20
  %50 = icmp eq i64 %49, -1
  br i1 %50, label %127, label %51

51:                                               ; preds = %48
  %52 = trunc i64 %49 to i32
  %53 = add i32 %46, %52
  br label %124

54:                                               ; preds = %3, %3, %3, %3
  %55 = getelementptr inbounds i8, ptr %0, i64 56
  %56 = load i32, ptr %55, align 8
  %57 = add i32 %56, 4
  br label %124

58:                                               ; preds = %3, %3, %3, %3
  %59 = getelementptr inbounds i8, ptr %0, i64 56
  %60 = load i32, ptr %59, align 8
  %61 = add i32 %60, 4
  br label %124

62:                                               ; preds = %3, %3, %3
  %63 = getelementptr inbounds i8, ptr %0, i64 56
  %64 = load i32, ptr %63, align 8
  %65 = add i32 %64, 8
  br label %124

66:                                               ; preds = %3, %3, %3
  %67 = getelementptr inbounds i8, ptr %0, i64 56
  %68 = load i32, ptr %67, align 8
  %69 = add i32 %68, 8
  br label %124

70:                                               ; preds = %3, %3, %3
  %71 = getelementptr inbounds i8, ptr %0, i64 56
  %72 = load i32, ptr %71, align 8
  %73 = add i32 %72, 4
  br label %124

74:                                               ; preds = %3, %3, %3
  %75 = getelementptr inbounds i8, ptr %0, i64 56
  %76 = load i32, ptr %75, align 8
  %77 = add i32 %76, 8
  br label %124

78:                                               ; preds = %3
  %79 = getelementptr inbounds i8, ptr %1, i64 28
  %80 = load i32, ptr %79, align 4
  %81 = and i32 %80, 16
  %.not57 = icmp eq i32 %81, 0
  %82 = getelementptr inbounds i8, ptr %0, i64 120
  %83 = load i64, ptr %82, align 8
  br i1 %.not57, label %86, label %84

84:                                               ; preds = %78
  %85 = trunc i64 %83 to i32
  br label %124

86:                                               ; preds = %78
  %87 = getelementptr inbounds i8, ptr %0, i64 128
  %88 = load i64, ptr %87, align 8
  %89 = add i64 %88, %83
  %90 = trunc i64 %89 to i32
  br label %124

91:                                               ; preds = %3
  %92 = getelementptr inbounds i8, ptr %1, i64 28
  %93 = load i32, ptr %92, align 4
  %94 = and i32 %93, 16
  %.not56 = icmp eq i32 %94, 0
  %95 = getelementptr inbounds i8, ptr %0, i64 120
  %96 = load i64, ptr %95, align 8
  br i1 %.not56, label %99, label %97

97:                                               ; preds = %91
  %98 = trunc i64 %96 to i32
  br label %124

99:                                               ; preds = %91
  %100 = getelementptr inbounds i8, ptr %1, i64 5
  %101 = load i8, ptr %100, align 1
  %102 = zext i8 %101 to i64
  %103 = add i64 %96, %102
  %104 = trunc i64 %103 to i32
  br label %124

105:                                              ; preds = %3, %3, %3, %3, %3
  %106 = getelementptr inbounds i8, ptr %0, i64 56
  %107 = load i32, ptr %106, align 8
  br label %124

108:                                              ; preds = %3
  %109 = tail call i32 @der_offs(ptr noundef %0, ptr noundef nonnull %1, i64 noundef %.160.val) #20
  %110 = icmp eq i32 %109, -1
  %111 = sext i32 %109 to i64
  %112 = icmp ugt i64 %111, %.160.val
  %or.cond = select i1 %110, i1 true, i1 %112
  br i1 %or.cond, label %113, label %124

113:                                              ; preds = %108
  %114 = getelementptr inbounds i8, ptr %0, i64 68
  %115 = load i32, ptr %114, align 4
  %116 = and i32 %115, 1
  %.not = icmp eq i32 %116, 0
  br i1 %.not, label %.sink.split, label %117

117:                                              ; preds = %113
  %118 = load ptr, ptr @stderr, align 8
  %119 = tail call i32 (ptr, ptr, ...) @fprintf(ptr noundef %118, ptr noundef nonnull @.str.48, i32 noundef %109, i64 noundef %.160.val) #22
  br label %.sink.split

120:                                              ; preds = %3
  %121 = getelementptr inbounds i8, ptr %0, i64 56
  %122 = load i32, ptr %121, align 8
  %123 = add i32 %122, 16
  br label %124

124:                                              ; preds = %3, %108, %97, %99, %84, %86, %25, %51, %40, %120, %105, %74, %70, %66, %62, %58, %54, %18, %14, %10, %6
  %.052 = phi i32 [ %123, %120 ], [ %107, %105 ], [ %98, %97 ], [ %104, %99 ], [ %85, %84 ], [ %90, %86 ], [ %77, %74 ], [ %73, %70 ], [ %69, %66 ], [ %65, %62 ], [ %61, %58 ], [ %57, %54 ], [ %31, %25 ], [ %53, %51 ], [ %46, %40 ], [ %21, %18 ], [ %17, %14 ], [ %13, %10 ], [ %9, %6 ], [ %109, %108 ], [ 0, %3 ]
  %125 = sext i32 %.052 to i64
  %126 = icmp ugt i64 %125, %.160.val
  br i1 %126, label %127, label %.sink.split

.sink.split:                                      ; preds = %124, %113, %117
  %.052.sink = phi i32 [ 0, %117 ], [ 0, %113 ], [ %.052, %124 ]
  %.0.ph = phi i32 [ 0, %117 ], [ 0, %113 ], [ 1, %124 ]
  store i32 %.052.sink, ptr %2, align 4
  br label %127

127:                                              ; preds = %.sink.split, %124, %48
  %.0 = phi i32 [ -1, %48 ], [ -1, %124 ], [ %.0.ph, %.sink.split ]
  ret i32 %.0
}